target datalayout = "e-m:e-p270:32:32-p271:32:32-p272:64:64-i64:64-i128:128-f80:128-n8:16:32:64-S128"
target triple = "x86_64-unknown-linux-gnu"

%struct.bcdec__bitstream = type { i64, i64 }

; Function Attrs: mustprogress nounwind uwtable
define hidden noundef i32 @_Z26bcdec__bitstream_read_bitsP16bcdec__bitstreami(ptr noundef %bstream, i32 noundef %numBits) #4 {
entry:
  %bstream.addr = alloca ptr, align 8
  %numBits.addr = alloca i32, align 4
  %mask = alloca i32, align 4
  %bits = alloca i32, align 4
  store ptr %bstream, ptr %bstream.addr, align 8
  store i32 %numBits, ptr %numBits.addr, align 4
  %0 = load i32, ptr %numBits.addr, align 4
  %shl = shl i32 1, %0
  %sub = sub nsw i32 %shl, 1
  store i32 %sub, ptr %mask, align 4
  %1 = load ptr, ptr %bstream.addr, align 8
  %low = getelementptr inbounds %struct.bcdec__bitstream, ptr %1, i32 0, i32 0
  %2 = load i64, ptr %low, align 8
  %3 = load i32, ptr %mask, align 4
  %conv = zext i32 %3 to i64
  %and = and i64 %2, %conv
  %conv1 = trunc i64 %and to i32
  store i32 %conv1, ptr %bits, align 4
  %4 = load i32, ptr %numBits.addr, align 4
  %5 = load ptr, ptr %bstream.addr, align 8
  %low2 = getelementptr inbounds %struct.bcdec__bitstream, ptr %5, i32 0, i32 0
  %6 = load i64, ptr %low2, align 8
  %sh_prom = zext i32 %4 to i64
  %shr = lshr i64 %6, %sh_prom
  store i64 %shr, ptr %low2, align 8
  %7 = load ptr, ptr %bstream.addr, align 8
  %high = getelementptr inbounds %struct.bcdec__bitstream, ptr %7, i32 0, i32 1
  %8 = load i64, ptr %high, align 8
  %9 = load i32, ptr %mask, align 4
  %conv3 = zext i32 %9 to i64
  %and4 = and i64 %8, %conv3
  %10 = load i32, ptr %numBits.addr, align 4
  %conv5 = sext i32 %10 to i64
  %sub6 = sub i64 64, %conv5
  %shl7 = shl i64 %and4, %sub6
  %11 = load ptr, ptr %bstream.addr, align 8
  %low8 = getelementptr inbounds %struct.bcdec__bitstream, ptr %11, i32 0, i32 0
  %12 = load i64, ptr %low8, align 8
  %or = or i64 %12, %shl7
  store i64 %or, ptr %low8, align 8
  %13 = load i32, ptr %numBits.addr, align 4
  %14 = load ptr, ptr %bstream.addr, align 8
  %high9 = getelementptr inbounds %struct.bcdec__bitstream, ptr %14, i32 0, i32 1
  %15 = load i64, ptr %high9, align 8
  %sh_prom10 = zext i32 %13 to i64
  %shr11 = lshr i64 %15, %sh_prom10
  store i64 %shr11, ptr %high9, align 8
  %16 = load i32, ptr %bits, align 4
  ret i32 %16
}

; Function Attrs: mustprogress nounwind uwtable
define hidden noundef i32 @_Z28bcdec__bitstream_read_bits_rP16bcdec__bitstreami(ptr noundef %bstream, i32 noundef %numBits) #4 {
entry:
  %bstream.addr = alloca ptr, align 8
  %numBits.addr = alloca i32, align 4
  %bits = alloca i32, align 4
  %result = alloca i32, align 4
  store ptr %bstream, ptr %bstream.addr, align 8
  store i32 %numBits, ptr %numBits.addr, align 4
  %0 = load ptr, ptr %bstream.addr, align 8
  %1 = load i32, ptr %numBits.addr, align 4
  %call = call noundef i32 @_Z26bcdec__bitstream_read_bitsP16bcdec__bitstreami(ptr noundef %0, i32 noundef %1)
  store i32 %call, ptr %bits, align 4
  store i32 0, ptr %result, align 4
  br label %while.cond

while.cond:                                       ; preds = %while.body, %entry
  %2 = load i32, ptr %numBits.addr, align 4
  %dec = add nsw i32 %2, -1
  store i32 %dec, ptr %numBits.addr, align 4
  %tobool = icmp ne i32 %2, 0
  br i1 %tobool, label %while.body, label %while.end

while.body:                                       ; preds = %while.cond
  %3 = load i32, ptr %result, align 4
  %shl = shl i32 %3, 1
  store i32 %shl, ptr %result, align 4
  %4 = load i32, ptr %bits, align 4
  %and = and i32 %4, 1
  %5 = load i32, ptr %result, align 4
  %or = or i32 %5, %and
  store i32 %or, ptr %result, align 4
  %6 = load i32, ptr %bits, align 4
  %shr = ashr i32 %6, 1
  store i32 %shr, ptr %bits, align 4
  br label %while.cond, !llvm.loop !11

while.end:                                        ; preds = %while.cond
  %7 = load i32, ptr %result, align 4
  ret i32 %7
}