; Function Attrs: mustprogress nofree norecurse nosync nounwind memory(argmem: readwrite) uwtable
define hidden noundef i32 @_Z28bcdec__bitstream_read_bits_rP16bcdec__bitstreami(ptr nocapture noundef %bstream, i32 noundef %numBits) local_unnamed_addr #7 {
entry:
  %notmask.i = shl nsw i32 -1, %numBits
  %sub.i = xor i32 %notmask.i, -1
  %0 = load i64, ptr %bstream, align 8
  %conv.i = zext nneg i32 %sub.i to i64
  %sh_prom.i = zext i32 %numBits to i64
  %shr.i = lshr i64 %0, %sh_prom.i
  %high.i = getelementptr inbounds i8, ptr %bstream, i64 8
  %1 = load i64, ptr %high.i, align 8
  %and4.i = and i64 %1, %conv.i
  %conv5.i = sext i32 %numBits to i64
  %sub6.i = sub nsw i64 64, %conv5.i
  %shl7.i = shl i64 %and4.i, %sub6.i
  %or.i = or i64 %shl7.i, %shr.i
  store i64 %or.i, ptr %bstream, align 8
  %shr11.i = lshr i64 %1, %sh_prom.i
  store i64 %shr11.i, ptr %high.i, align 8
  %tobool.not5 = icmp eq i32 %numBits, 0
  br i1 %tobool.not5, label %while.end, label %while.body.preheader

while.body.preheader:                             ; preds = %entry
  %2 = trunc i64 %0 to i32
  %conv1.i = and i32 %2, %sub.i
  br label %while.body

while.body:                                       ; preds = %while.body.preheader, %while.body
  %result.08 = phi i32 [ %or, %while.body ], [ 0, %while.body.preheader ]
  %bits.07 = phi i32 [ %shr, %while.body ], [ %conv1.i, %while.body.preheader ]
  %numBits.addr.06 = phi i32 [ %dec, %while.body ], [ %numBits, %while.body.preheader ]
  %dec = add nsw i32 %numBits.addr.06, -1
  %shl = shl i32 %result.08, 1
  %and = and i32 %bits.07, 1
  %or = or disjoint i32 %shl, %and
  %shr = lshr i32 %bits.07, 1
  %tobool.not = icmp eq i32 %dec, 0
  br i1 %tobool.not, label %while.end, label %while.body, !llvm.loop !11

while.end:                                        ; preds = %while.body, %entry
  %result.0.lcssa = phi i32 [ 0, %entry ], [ %or, %while.body ]
  ret i32 %result.0.lcssa
}